target datalayout = "e-m:e-p270:32:32-p271:32:32-p272:64:64-i64:64-i128:128-f80:128-n8:16:32:64-S128"
target triple = "x86_64-pc-linux-gnu"

%struct._lv_tabview_t = type { %struct._lv_obj_t, i32, i32 }
%struct._lv_obj_t = type { ptr, ptr, ptr, ptr, ptr, %struct.lv_area_t, i32, i16, i16 }
%struct.lv_area_t = type { i32, i32, i32, i32 }
%union.lv_style_value_t = type { ptr }
%struct.lv_point_t = type { i32, i32 }
%struct._lv_indev_t = type { i32, ptr, i32, i32, i8, i32, i32, ptr, ptr, ptr, ptr, i8, i8, i8, i8, i16, i16, i32, %struct.anon, %struct.anon.0, ptr, ptr, ptr, %struct.lv_event_list_t, ptr }
%struct.anon = type { %struct.lv_point_t, %struct.lv_point_t, %struct.lv_point_t, %struct.lv_point_t, %struct.lv_point_t, %struct.lv_point_t, %struct.lv_point_t, ptr, ptr, ptr, ptr, ptr, %struct.lv_area_t, %struct.lv_point_t, i32, i8, %struct.lv_point_t, i32, i16 }
%struct.anon.0 = type { i32, i32 }
%struct.lv_event_list_t = type { %struct._lv_array_t, i8 }
%struct._lv_array_t = type { ptr, i32, i32, i32, i8 }

; Function Attrs: inlinehint nounwind uwtable
define internal i32 @lv_obj_get_style_base_dir(ptr noundef %0, i32 noundef %1) #3 {
  %3 = alloca ptr, align 8
  %4 = alloca i32, align 4
  %5 = alloca %union.lv_style_value_t, align 8
  store ptr %0, ptr %3, align 8, !tbaa !3
  store i32 %1, ptr %4, align 4, !tbaa !13
  call void @llvm.lifetime.start.p0(i64 8, ptr %5) #4
  %6 = load ptr, ptr %3, align 8, !tbaa !3
  %7 = load i32, ptr %4, align 4, !tbaa !13
  %8 = call ptr @lv_obj_get_style_prop(ptr noundef %6, i32 noundef %7, i8 noundef zeroext 39)
  %9 = getelementptr inbounds nuw %union.lv_style_value_t, ptr %5, i32 0, i32 0
  store ptr %8, ptr %9, align 8
  %10 = load i32, ptr %5, align 8, !tbaa !17
  call void @llvm.lifetime.end.p0(i64 8, ptr %5) #4
  ret i32 %10
}

; Function Attrs: nounwind uwtable
define i32 @lv_tabview_get_tab_active(ptr noundef %0) #0 {
  %2 = alloca ptr, align 8
  %3 = alloca ptr, align 8
  store ptr %0, ptr %2, align 8, !tbaa !3
  br label %4

4:                                                ; preds = %1
  br label %5

5:                                                ; preds = %4
  call void @llvm.lifetime.start.p0(i64 8, ptr %3) #4
  %6 = load ptr, ptr %2, align 8, !tbaa !3
  store ptr %6, ptr %3, align 8, !tbaa !3
  %7 = load ptr, ptr %3, align 8, !tbaa !3
  %8 = getelementptr inbounds nuw %struct._lv_tabview_t, ptr %7, i32 0, i32 1
  %9 = load i32, ptr %8, align 8, !tbaa !16
  call void @llvm.lifetime.end.p0(i64 8, ptr %3) #4
  ret i32 %9
}

; Function Attrs: nounwind uwtable
define internal void @cont_scroll_end_event_cb(ptr noundef %0) #0 {
  %2 = alloca ptr, align 8
  %3 = alloca ptr, align 8
  %4 = alloca i32, align 4
  %5 = alloca ptr, align 8
  %6 = alloca ptr, align 8
  %7 = alloca ptr, align 8
  %8 = alloca i32, align 4
  %9 = alloca %struct.lv_point_t, align 4
  %10 = alloca i32, align 4
  %11 = alloca i32, align 4
  %12 = alloca i32, align 4
  %13 = alloca i8, align 1
  store ptr %0, ptr %2, align 8, !tbaa !3
  call void @llvm.lifetime.start.p0(i64 8, ptr %3) #4
  %14 = load ptr, ptr %2, align 8, !tbaa !3
  %15 = call ptr @lv_event_get_current_target(ptr noundef %14)
  store ptr %15, ptr %3, align 8, !tbaa !3
  call void @llvm.lifetime.start.p0(i64 4, ptr %4) #4
  %16 = load ptr, ptr %2, align 8, !tbaa !3
  %17 = call i32 @lv_event_get_code(ptr noundef %16)
  store i32 %17, ptr %4, align 4, !tbaa !13
  call void @llvm.lifetime.start.p0(i64 8, ptr %5) #4
  %18 = load ptr, ptr %3, align 8, !tbaa !3
  %19 = call ptr @lv_obj_get_parent(ptr noundef %18)
  store ptr %19, ptr %5, align 8, !tbaa !3
  call void @llvm.lifetime.start.p0(i64 8, ptr %6) #4
  %20 = load ptr, ptr %5, align 8, !tbaa !3
  store ptr %20, ptr %6, align 8, !tbaa !3
  %21 = load i32, ptr %4, align 4, !tbaa !13
  %22 = icmp eq i32 %21, 51
  br i1 %22, label %23, label %27

23:                                               ; preds = %1
  %24 = load ptr, ptr %5, align 8, !tbaa !3
  %25 = load ptr, ptr %5, align 8, !tbaa !3
  %26 = call i32 @lv_tabview_get_tab_active(ptr noundef %25)
  call void @lv_tabview_set_active(ptr noundef %24, i32 noundef %26, i32 noundef 0)
  br label %111

27:                                               ; preds = %1
  %28 = load i32, ptr %4, align 4, !tbaa !13
  %29 = icmp eq i32 %28, 14
  br i1 %29, label %30, label %110

30:                                               ; preds = %27
  call void @llvm.lifetime.start.p0(i64 8, ptr %7) #4
  %31 = call ptr @lv_indev_active()
  store ptr %31, ptr %7, align 8, !tbaa !3
  %32 = load ptr, ptr %7, align 8, !tbaa !3
  %33 = icmp ne ptr %32, null
  br i1 %33, label %34, label %40

34:                                               ; preds = %30
  %35 = load ptr, ptr %7, align 8, !tbaa !3
  %36 = getelementptr inbounds nuw %struct._lv_indev_t, ptr %35, i32 0, i32 2
  %37 = load i32, ptr %36, align 8, !tbaa !22
  %38 = icmp eq i32 %37, 1
  br i1 %38, label %39, label %40

39:                                               ; preds = %34
  store i32 1, ptr %8, align 4
  br label %107

40:                                               ; preds = %34, %30
  call void @llvm.lifetime.start.p0(i64 8, ptr %9) #4
  %41 = load ptr, ptr %3, align 8, !tbaa !3
  call void @lv_obj_get_scroll_end(ptr noundef %41, ptr noundef %9)
  call void @llvm.lifetime.start.p0(i64 4, ptr %10) #4
  %42 = load ptr, ptr %6, align 8, !tbaa !3
  %43 = getelementptr inbounds nuw %struct._lv_tabview_t, ptr %42, i32 0, i32 2
  %44 = load i32, ptr %43, align 4, !tbaa !7
  %45 = and i32 %44, 12
  %46 = icmp ne i32 %45, 0
  br i1 %46, label %47, label %71

47:                                               ; preds = %40
  call void @llvm.lifetime.start.p0(i64 4, ptr %11) #4
  %48 = load ptr, ptr %3, align 8, !tbaa !3
  %49 = call i32 @lv_obj_get_content_width(ptr noundef %48)
  store i32 %49, ptr %11, align 4, !tbaa !13
  %50 = load ptr, ptr %5, align 8, !tbaa !3
  %51 = call i32 @lv_obj_get_style_base_dir(ptr noundef %50, i32 noundef 0)
  %52 = icmp eq i32 %51, 1
  br i1 %52, label %53, label %62

53:                                               ; preds = %47
  %54 = getelementptr inbounds nuw %struct.lv_point_t, ptr %9, i32 0, i32 0
  %55 = load i32, ptr %54, align 4, !tbaa !28
  %56 = load i32, ptr %11, align 4, !tbaa !13
  %57 = sdiv i32 %56, 2
  %58 = sub nsw i32 %55, %57
  %59 = sub nsw i32 0, %58
  %60 = load i32, ptr %11, align 4, !tbaa !13
  %61 = sdiv i32 %59, %60
  store i32 %61, ptr %10, align 4, !tbaa !13
  br label %70

62:                                               ; preds = %47
  %63 = getelementptr inbounds nuw %struct.lv_point_t, ptr %9, i32 0, i32 0
  %64 = load i32, ptr %63, align 4, !tbaa !28
  %65 = load i32, ptr %11, align 4, !tbaa !13
  %66 = sdiv i32 %65, 2
  %67 = add nsw i32 %64, %66
  %68 = load i32, ptr %11, align 4, !tbaa !13
  %69 = sdiv i32 %67, %68
  store i32 %69, ptr %10, align 4, !tbaa !13
  br label %70

70:                                               ; preds = %62, %53
  call void @llvm.lifetime.end.p0(i64 4, ptr %11) #4
  br label %81

71:                                               ; preds = %40
  call void @llvm.lifetime.start.p0(i64 4, ptr %12) #4
  %72 = load ptr, ptr %3, align 8, !tbaa !3
  %73 = call i32 @lv_obj_get_content_height(ptr noundef %72)
  store i32 %73, ptr %12, align 4, !tbaa !13
  %74 = getelementptr inbounds nuw %struct.lv_point_t, ptr %9, i32 0, i32 1
  %75 = load i32, ptr %74, align 4, !tbaa !29
  %76 = load i32, ptr %12, align 4, !tbaa !13
  %77 = sdiv i32 %76, 2
  %78 = add nsw i32 %75, %77
  %79 = load i32, ptr %12, align 4, !tbaa !13
  %80 = sdiv i32 %78, %79
  store i32 %80, ptr %10, align 4, !tbaa !13
  call void @llvm.lifetime.end.p0(i64 4, ptr %12) #4
  br label %81

81:                                               ; preds = %71, %70
  %82 = load i32, ptr %10, align 4, !tbaa !13
  %83 = icmp slt i32 %82, 0
  br i1 %83, label %84, label %85

84:                                               ; preds = %81
  store i32 0, ptr %10, align 4, !tbaa !13
  br label %85

85:                                               ; preds = %84, %81
  call void @llvm.lifetime.start.p0(i64 1, ptr %13) #4
  store i8 0, ptr %13, align 1, !tbaa !18
  %86 = load i32, ptr %10, align 4, !tbaa !13
  %87 = load ptr, ptr %5, align 8, !tbaa !3
  %88 = call i32 @lv_tabview_get_tab_active(ptr noundef %87)
  %89 = icmp ne i32 %86, %88
  br i1 %89, label %90, label %91

90:                                               ; preds = %85
  store i8 1, ptr %13, align 1, !tbaa !18
  br label %91

91:                                               ; preds = %90, %85
  %92 = call ptr @lv_indev_active()
  %93 = icmp ne ptr %92, null
  br i1 %93, label %94, label %97

94:                                               ; preds = %91
  %95 = load ptr, ptr %5, align 8, !tbaa !3
  %96 = load i32, ptr %10, align 4, !tbaa !13
  call void @lv_tabview_set_active(ptr noundef %95, i32 noundef %96, i32 noundef 1)
  br label %100

97:                                               ; preds = %91
  %98 = load ptr, ptr %5, align 8, !tbaa !3
  %99 = load i32, ptr %10, align 4, !tbaa !13
  call void @lv_tabview_set_active(ptr noundef %98, i32 noundef %99, i32 noundef 0)
  br label %100

100:                                              ; preds = %97, %94
  %101 = load i8, ptr %13, align 1, !tbaa !18, !range !20, !noundef !21
  %102 = trunc i8 %101 to i1
  br i1 %102, label %103, label %106

103:                                              ; preds = %100
  %104 = load ptr, ptr %5, align 8, !tbaa !3
  %105 = call i32 @lv_obj_send_event(ptr noundef %104, i32 noundef 35, ptr noundef null)
  br label %106

106:                                              ; preds = %103, %100
  call void @llvm.lifetime.end.p0(i64 1, ptr %13) #4
  call void @llvm.lifetime.end.p0(i64 4, ptr %10) #4
  call void @llvm.lifetime.end.p0(i64 8, ptr %9) #4
  store i32 0, ptr %8, align 4
  br label %107

107:                                              ; preds = %106, %39
  call void @llvm.lifetime.end.p0(i64 8, ptr %7) #4
  %108 = load i32, ptr %8, align 4
  switch i32 %108, label %112 [
    i32 0, label %109
  ]

109:                                              ; preds = %107
  br label %110

110:                                              ; preds = %109, %27
  br label %111

111:                                              ; preds = %110, %23
  store i32 0, ptr %8, align 4
  br label %112

112:                                              ; preds = %111, %107
  call void @llvm.lifetime.end.p0(i64 8, ptr %6) #4
  call void @llvm.lifetime.end.p0(i64 8, ptr %5) #4
  call void @llvm.lifetime.end.p0(i64 4, ptr %4) #4
  call void @llvm.lifetime.end.p0(i64 8, ptr %3) #4
  %113 = load i32, ptr %8, align 4
  switch i32 %113, label %115 [
    i32 0, label %114
    i32 1, label %114
  ]

114:                                              ; preds = %112, %112
  ret void

115:                                              ; preds = %112
  unreachable
}