; Function Attrs: nounwind uwtable
define internal void @cont_scroll_end_event_cb(ptr noundef %0) #0 {
  %2 = alloca %struct.lv_point_t, align 4
  %3 = tail call ptr @lv_event_get_current_target(ptr noundef %0) #5
  %4 = tail call i32 @lv_event_get_code(ptr noundef %0) #5
  %5 = tail call ptr @lv_obj_get_parent(ptr noundef %3) #5
  switch i32 %4, label %40 [
    i32 51, label %6
    i32 14, label %9
  ]

6:                                                ; preds = %1
  %7 = getelementptr inbounds nuw i8, ptr %5, i64 64
  %8 = load i32, ptr %7, align 8, !tbaa !12
  tail call void @lv_tabview_set_active(ptr noundef %5, i32 noundef %8, i32 noundef 0)
  br label %40

9:                                                ; preds = %1
  %10 = tail call ptr @lv_indev_active() #5
  %.not = icmp eq ptr %10, null
  br i1 %.not, label %15, label %11

11:                                               ; preds = %9
  %12 = getelementptr inbounds nuw i8, ptr %10, i64 16
  %13 = load i32, ptr %12, align 8, !tbaa !15
  %14 = icmp eq i32 %13, 1
  br i1 %14, label %40, label %15

15:                                               ; preds = %11, %9
  call void @llvm.lifetime.start.p0(i64 8, ptr nonnull %2) #5
  call void @lv_obj_get_scroll_end(ptr noundef %3, ptr noundef nonnull %2) #5
  %16 = getelementptr inbounds nuw i8, ptr %5, i64 68
  %17 = load i32, ptr %16, align 4, !tbaa !3
  %18 = and i32 %17, 12
  %.not34 = icmp eq i32 %18, 0
  br i1 %.not34, label %27, label %19

19:                                               ; preds = %15
  %20 = call i32 @lv_obj_get_content_width(ptr noundef %3) #5
  %21 = call ptr @lv_obj_get_style_prop(ptr noundef nonnull %5, i32 noundef 0, i8 noundef zeroext 39) #5
  %22 = ptrtoint ptr %21 to i64
  %23 = and i64 %22, 4294967295
  %24 = icmp eq i64 %23, 1
  %25 = load i32, ptr %2, align 4, !tbaa !22
  %.neg.neg = sdiv i32 %20, 2
  %26 = sub i32 0, %25
  %.neg35.pn.p = select i1 %24, i32 %26, i32 %25
  %.neg35.pn = add i32 %.neg.neg, %.neg35.pn.p
  %.031 = sdiv i32 %.neg35.pn, %20
  br label %34

27:                                               ; preds = %15
  %28 = call i32 @lv_obj_get_content_height(ptr noundef %3) #5
  %29 = getelementptr inbounds nuw i8, ptr %2, i64 4
  %30 = load i32, ptr %29, align 4, !tbaa !23
  %31 = sdiv i32 %28, 2
  %32 = add nsw i32 %30, %31
  %33 = sdiv i32 %32, %28
  br label %34

34:                                               ; preds = %27, %19
  %.1 = phi i32 [ %.031, %19 ], [ %33, %27 ]
  %spec.store.select = call i32 @llvm.smax.i32(i32 %.1, i32 0)
  %35 = getelementptr inbounds nuw i8, ptr %5, i64 64
  %36 = load i32, ptr %35, align 8, !tbaa !12
  %.not36.not = icmp eq i32 %spec.store.select, %36
  %37 = call ptr @lv_indev_active() #5
  %.not37 = icmp ne ptr %37, null
  %. = zext i1 %.not37 to i32
  call void @lv_tabview_set_active(ptr noundef nonnull %5, i32 noundef %spec.store.select, i32 noundef %.)
  br i1 %.not36.not, label %.critedge, label %38

38:                                               ; preds = %34
  %39 = call i32 @lv_obj_send_event(ptr noundef nonnull %5, i32 noundef 35, ptr noundef null) #5
  br label %.critedge

.critedge:                                        ; preds = %38, %34
  call void @llvm.lifetime.end.p0(i64 8, ptr nonnull %2) #5
  br label %40

40:                                               ; preds = %6, %1, %.critedge, %11
  ret void
}